;DLLNAME bteng[10005952].DLL
EXPORTS
	?ActiveConnectSocketL@CBTConnection@@QAEHAAVRSocketServ@@AAVRSocket@@AAVCBTDevice@@IAAVTRequestStatus@@@Z @ 1 NONAME
	?ActiveConnectSocketL@CBTConnection@@QAEHAAVRSocketServ@@AAVRSocket@@HAAVCBTDevice@@IAAVTRequestStatus@@@Z @ 2 NONAME
	?AddDeviceIntoRegistryL@RBTDeviceHandler@@QAEHAAVCBTDevice@@@Z @ 3 NONAME
	?AreExistingConnectionsL@RBTDeviceHandler@@QAEHAAH@Z @ 4 NONAME
	?AuthenticateConnection@CBTConnection@@QAEXAAVRSocket@@AAVTRequestStatus@@@Z @ 5 NONAME
	?CancelAuthentication@CBTConnection@@QAEXAAVRSocket@@@Z @ 6 NONAME
	?CancelBonding@CBTConnection@@QAEXXZ @ 7 NONAME
	?CancelConnection@CBTConnection@@QAEXAAVRSocket@@@Z @ 8 NONAME
	?CloseAllBasebandConnectionsL@RBTDeviceHandler@@QAEHXZ @ 9 NONAME
	?CloseBasebandConnectionL@RBTDeviceHandler@@QAEHABVCBTDevice@@@Z @ 10 NONAME
	?DeleteAllDevicesL@RBTDeviceHandler@@QAEHXZ @ 11 NONAME
	?DeleteDeviceFromRegistryL@RBTDeviceHandler@@QAEHAAVCBTDevice@@@Z @ 12 NONAME
	?DeleteDevicesWithoutLinkKeyL@RBTDeviceHandler@@QAEHXZ @ 13 NONAME
	?DisconnectSocketL@CBTConnection@@QAEHAAVRSocket@@W4TShutdown@2@@Z @ 14 NONAME
	?E32Dll@@YAHW4TDllReason@@@Z @ 15 NONAME
	?GetAllSettings@CBTMCMSettings@@SAHAAHAAW4TBTDiscoverabilityMode@@AAW4TBTSearchMode@@AAVTDes16@@0@Z @ 16 NONAME
	?GetDevicesFromRegistryL@RBTDeviceHandler@@QAEHAAV?$CArrayPtrFlat@VCBTDevice@@@@@Z @ 17 NONAME
	?GetDiscoverabilityModeL@CBTMCMSettings@@SAHAAW4TBTDiscoverabilityMode@@@Z @ 18 NONAME
	?GetLocalBDAddress@CBTMCMSettings@@SAHAAVTBTDevAddr@@@Z @ 19 NONAME
	?GetLocalBTName@CBTMCMSettings@@SAHAAVTDes16@@@Z @ 20 NONAME
	?GetOpenBasebandConnectionsL@RBTDeviceHandler@@QAEHAAV?$CArrayPtrFlat@VCBTDevice@@@@@Z @ 21 NONAME
	?GetPowerStateL@CBTMCMSettings@@SAHAAH@Z @ 22 NONAME
	?GetRemoteDeviceInfoL@CBTConnection@@QAEHAAVRSocket@@AAVCBTDevice@@@Z @ 23 NONAME
	?GetSearchModeL@CBTMCMSettings@@SAHAAW4TBTSearchMode@@@Z @ 24 NONAME
	?IsDeviceConnectedL@RBTDeviceHandler@@QAEHABVCBTDevice@@AAH@Z @ 25 NONAME
	?IsLocalNameModified@CBTMCMSettings@@SAHAAH@Z @ 26 NONAME
	?ModifyDeviceInRegistryL@RBTDeviceHandler@@QAEHAAVCBTDevice@@@Z @ 27 NONAME
	?NewL@CBTConnection@@SAPAV1@XZ @ 28 NONAME
	?NewL@CBTMCMSettings@@SAPAV1@PAVMBTMCMSettingsCB@@@Z @ 29 NONAME
	?NewL@CBTRfs@@SAPAV1@XZ @ 30 NONAME
	?NewLC@CBTConnection@@SAPAV1@XZ @ 31 NONAME
	?NewLC@CBTMCMSettings@@SAPAV1@PAVMBTMCMSettingsCB@@@Z @ 32 NONAME
	?NewLC@CBTRfs@@SAPAV1@XZ @ 33 NONAME
	?PassiveConnectSocketL@CBTConnection@@QAEHAAVRSocketServ@@AAVRSocket@@1AAIAAVTRequestStatus@@@Z @ 34 NONAME
	?PerformBondingL@CBTConnection@@QAEHAAVCBTDevice@@PAVMBTBondingObserver@@@Z @ 35 NONAME
	?RegisterSDPSettingsL@CBTConnection@@QAEHIIAAK@Z @ 36 NONAME
	?RegisterSecuritySettingsL@CBTConnection@@QAEHIHHHHH@Z @ 37 NONAME
	?ReleaseLocalChannelL@CBTConnection@@QAEHAAVRSocket@@@Z @ 38 NONAME
	?RemoveTrustFromDevicesL@RBTDeviceHandler@@QAEHXZ @ 39 NONAME
	?ReserveLocalChannelL@CBTConnection@@QAEHAAVRSocketServ@@AAVRSocket@@AAI@Z @ 40 NONAME
	?RestoreFactorySettingsL@CBTRfs@@QAEHH@Z @ 41 NONAME
	?SearchRemoteChannelL@CBTConnection@@QAEHABVCBTDevice@@IAAI@Z @ 42 NONAME
	?SearchRemoteChannelL@CBTConnection@@QAEHABVCBTDevice@@IAAIAAVTRequestStatus@@@Z @ 43 NONAME
	?SearchRemoteDeviceL@CBTConnection@@QAEHAAVCBTDevice@@@Z @ 44 NONAME
	?SearchRemoteDeviceL@CBTConnection@@QAEHAAVCBTDevice@@W4TBTMajorServiceClass@@@Z @ 45 NONAME
	?SetDefaultValuesL@CBTMCMSettings@@QAEHXZ @ 46 NONAME
	?SetDeviceSecurityL@RBTDeviceHandler@@QAEHAAVCBTDevice@@HHH@Z @ 47 NONAME
	?SetDiscoverabilityModeL@CBTMCMSettings@@QAEHW4TBTDiscoverabilityMode@@H@Z @ 48 NONAME
	?SetLocalBTName@CBTMCMSettings@@QAEHABVTDesC16@@@Z @ 49 NONAME
	?SetPowerStateL@CBTMCMSettings@@QAEHHH@Z @ 50 NONAME
	?SetSearchModeL@CBTMCMSettings@@QAEHW4TBTSearchMode@@@Z @ 51 NONAME
	?UnregisterSDPSettingsL@CBTConnection@@QAEHK@Z @ 52 NONAME
	?UnregisterSecuritySettingsL@CBTConnection@@QAEHI@Z @ 53 NONAME
	?GetAccessoryAddr@CBTMCMSettings@@QAEHAAVTBTDevAddr@@@Z @ 54 NONAME
	?GetConnectionStatus@CBTMCMSettings@@QAEHAAH@Z @ 55 NONAME
	?IsCallOngoing@CBTMCMSettings@@QAEHAAH@Z @ 56 NONAME
	?IsWiredAccConnected@CBTMCMSettings@@QAEHAAH@Z @ 57 NONAME
	?RemoteSdpQueryL@CBTConnection@@QAEXABVCBTDevice@@VTUUID@@GAAI@Z @ 58 NONAME
	?CancelSearch@CBTConnection@@QAEXXZ @ 59 NONAME
